; Function Attrs: nounwind uwtable
define dso_local i32 @Curl_cf_def_query(ptr noundef readonly captures(none) %0, ptr noundef %1, i32 noundef %2, ptr noundef %3, ptr noundef %4) local_unnamed_addr #1 {
  %6 = getelementptr inbounds nuw i8, ptr %0, i64 8
  %7 = load ptr, ptr %6, align 8, !tbaa !8
  %.not = icmp eq ptr %7, null
  br i1 %.not, label %13, label %8

8:                                                ; preds = %5
  %9 = load ptr, ptr %7, align 8, !tbaa !15
  %10 = getelementptr inbounds nuw i8, ptr %9, i64 112
  %11 = load ptr, ptr %10, align 8, !tbaa !50
  %12 = tail call i32 %11(ptr noundef nonnull %7, ptr noundef %1, i32 noundef %2, ptr noundef %3, ptr noundef %4) #12
  br label %13

13:                                               ; preds = %5, %8
  %14 = phi i32 [ %12, %8 ], [ 48, %5 ]
  ret i32 %14
}